target datalayout = "e-m:e-p270:32:32-p271:32:32-p272:64:64-i64:64-i128:128-f80:128-n8:16:32:64-S128"
target triple = "x86_64-pc-linux-gnu"

%struct.AVCodecContext = type { ptr, i32, i32, ptr, i32, i32, ptr, ptr, ptr, i64, i32, i32, ptr, i32, %struct.AVRational, %struct.AVRational, %struct.AVRational, i32, i32, i32, i32, i32, %struct.AVRational, i32, i32, i32, i32, i32, i32, i32, i32, i32, i32, i32, ptr, ptr, i32, float, float, float, float, float, float, float, float, float, i32, i32, i32, i32, i32, i32, i32, i32, i32, i32, i32, i32, ptr, ptr, ptr, i32, i32, i32, i32, i32, i32, i32, i32, i32, i32, %struct.AVChannelLayout, i32, i32, i32, i32, i32, i32, i32, i32, ptr, i32, i32, i32, float, float, i32, i32, i32, i32, i32, ptr, i64, i64, float, float, i32, i32, ptr, ptr, i32, i32, i32, i32, i32, ptr, ptr, ptr, ptr, i32, i32, [8 x i64], i32, i32, i32, i32, i32, i32, i32, ptr, ptr, i32, i32, i32, i32, i32, i32, i32, i32, i32, i32, ptr, ptr, i32, i32, ptr, ptr, ptr, ptr, i32, i32, i64, i32, i32, i64, ptr, i64, ptr, i32, ptr, i32 }
%struct.AVRational = type { i32, i32 }
%struct.AVChannelLayout = type { i32, i32, %union.anon.0, ptr }
%union.anon.0 = type { i64 }
%struct.AVPacket = type { ptr, i64, i64, ptr, i32, i32, i32, ptr, i32, i64, i64, ptr, ptr, %struct.AVRational }
%struct.AVFrame = type { [8 x ptr], [8 x i32], ptr, i32, i32, i32, i32, i32, %struct.AVRational, i64, i64, %struct.AVRational, i32, ptr, i32, i32, [8 x ptr], ptr, i32, ptr, i32, i32, i32, i32, i32, i32, i32, i64, ptr, i32, ptr, ptr, i64, i64, i64, i64, ptr, %struct.AVChannelLayout, i64 }

@.str.2 = private unnamed_addr constant [26 x i8] c"Insufficient input data.\0A\00", align 1

; Function Attrs: nounwind uwtable
define internal i32 @yuv4_decode_frame(ptr noundef %0, ptr noundef %1, ptr noundef %2, ptr noundef %3) #1 {
  %5 = alloca i32, align 4
  %6 = alloca ptr, align 8
  %7 = alloca ptr, align 8
  %8 = alloca ptr, align 8
  %9 = alloca ptr, align 8
  %10 = alloca ptr, align 8
  %11 = alloca ptr, align 8
  %12 = alloca ptr, align 8
  %13 = alloca ptr, align 8
  %14 = alloca i32, align 4
  %15 = alloca i32, align 4
  %16 = alloca i32, align 4
  %17 = alloca i32, align 4
  store ptr %0, ptr %6, align 8, !tbaa !4
  store ptr %1, ptr %7, align 8, !tbaa !29
  store ptr %2, ptr %8, align 8, !tbaa !31
  store ptr %3, ptr %9, align 8, !tbaa !32
  call void @llvm.lifetime.start.p0(i64 8, ptr %10) #4
  %18 = load ptr, ptr %9, align 8, !tbaa !32
  %19 = getelementptr inbounds nuw %struct.AVPacket, ptr %18, i32 0, i32 3
  %20 = load ptr, ptr %19, align 8, !tbaa !34
  store ptr %20, ptr %10, align 8, !tbaa !36
  call void @llvm.lifetime.start.p0(i64 8, ptr %11) #4
  call void @llvm.lifetime.start.p0(i64 8, ptr %12) #4
  call void @llvm.lifetime.start.p0(i64 8, ptr %13) #4
  call void @llvm.lifetime.start.p0(i64 4, ptr %14) #4
  call void @llvm.lifetime.start.p0(i64 4, ptr %15) #4
  call void @llvm.lifetime.start.p0(i64 4, ptr %16) #4
  %21 = load ptr, ptr %9, align 8, !tbaa !32
  %22 = getelementptr inbounds nuw %struct.AVPacket, ptr %21, i32 0, i32 4
  %23 = load i32, ptr %22, align 8, !tbaa !37
  %24 = load ptr, ptr %6, align 8, !tbaa !4
  %25 = getelementptr inbounds nuw %struct.AVCodecContext, ptr %24, i32 0, i32 18
  %26 = load i32, ptr %25, align 8, !tbaa !38
  %27 = add nsw i32 %26, 1
  %28 = ashr i32 %27, 1
  %29 = mul nsw i32 6, %28
  %30 = load ptr, ptr %6, align 8, !tbaa !4
  %31 = getelementptr inbounds nuw %struct.AVCodecContext, ptr %30, i32 0, i32 19
  %32 = load i32, ptr %31, align 4, !tbaa !39
  %33 = add nsw i32 %32, 1
  %34 = ashr i32 %33, 1
  %35 = mul nsw i32 %29, %34
  %36 = icmp slt i32 %23, %35
  br i1 %36, label %37, label %39

37:                                               ; preds = %4
  %38 = load ptr, ptr %6, align 8, !tbaa !4
  call void (ptr, i32, ptr, ...) @av_log(ptr noundef %38, i32 noundef 16, ptr noundef @.str.2)
  store i32 -22, ptr %5, align 4
  store i32 1, ptr %17, align 4
  br label %175

39:                                               ; preds = %4
  %40 = load ptr, ptr %6, align 8, !tbaa !4
  %41 = load ptr, ptr %7, align 8, !tbaa !29
  %42 = call i32 @ff_get_buffer(ptr noundef %40, ptr noundef %41, i32 noundef 0)
  store i32 %42, ptr %16, align 4, !tbaa !40
  %43 = icmp slt i32 %42, 0
  br i1 %43, label %44, label %46

44:                                               ; preds = %39
  %45 = load i32, ptr %16, align 4, !tbaa !40
  store i32 %45, ptr %5, align 4
  store i32 1, ptr %17, align 4
  br label %175

46:                                               ; preds = %39
  %47 = load ptr, ptr %7, align 8, !tbaa !29
  %48 = getelementptr inbounds nuw %struct.AVFrame, ptr %47, i32 0, i32 0
  %49 = getelementptr inbounds [8 x ptr], ptr %48, i64 0, i64 0
  %50 = load ptr, ptr %49, align 8, !tbaa !36
  store ptr %50, ptr %11, align 8, !tbaa !36
  %51 = load ptr, ptr %7, align 8, !tbaa !29
  %52 = getelementptr inbounds nuw %struct.AVFrame, ptr %51, i32 0, i32 0
  %53 = getelementptr inbounds [8 x ptr], ptr %52, i64 0, i64 1
  %54 = load ptr, ptr %53, align 8, !tbaa !36
  store ptr %54, ptr %12, align 8, !tbaa !36
  %55 = load ptr, ptr %7, align 8, !tbaa !29
  %56 = getelementptr inbounds nuw %struct.AVFrame, ptr %55, i32 0, i32 0
  %57 = getelementptr inbounds [8 x ptr], ptr %56, i64 0, i64 2
  %58 = load ptr, ptr %57, align 8, !tbaa !36
  store ptr %58, ptr %13, align 8, !tbaa !36
  store i32 0, ptr %14, align 4, !tbaa !40
  br label %59

59:                                               ; preds = %167, %46
  %60 = load i32, ptr %14, align 4, !tbaa !40
  %61 = load ptr, ptr %6, align 8, !tbaa !4
  %62 = getelementptr inbounds nuw %struct.AVCodecContext, ptr %61, i32 0, i32 19
  %63 = load i32, ptr %62, align 4, !tbaa !39
  %64 = add nsw i32 %63, 1
  %65 = ashr i32 %64, 1
  %66 = icmp slt i32 %60, %65
  br i1 %66, label %67, label %170

67:                                               ; preds = %59
  store i32 0, ptr %15, align 4, !tbaa !40
  br label %68

68:                                               ; preds = %141, %67
  %69 = load i32, ptr %15, align 4, !tbaa !40
  %70 = load ptr, ptr %6, align 8, !tbaa !4
  %71 = getelementptr inbounds nuw %struct.AVCodecContext, ptr %70, i32 0, i32 18
  %72 = load i32, ptr %71, align 8, !tbaa !38
  %73 = add nsw i32 %72, 1
  %74 = ashr i32 %73, 1
  %75 = icmp slt i32 %69, %74
  br i1 %75, label %76, label %144

76:                                               ; preds = %68
  %77 = load ptr, ptr %10, align 8, !tbaa !36
  %78 = getelementptr inbounds nuw i8, ptr %77, i32 1
  store ptr %78, ptr %10, align 8, !tbaa !36
  %79 = load i8, ptr %77, align 1, !tbaa !41
  %80 = zext i8 %79 to i32
  %81 = xor i32 %80, 128
  %82 = trunc i32 %81 to i8
  %83 = load ptr, ptr %12, align 8, !tbaa !36
  %84 = load i32, ptr %15, align 4, !tbaa !40
  %85 = sext i32 %84 to i64
  %86 = getelementptr inbounds i8, ptr %83, i64 %85
  store i8 %82, ptr %86, align 1, !tbaa !41
  %87 = load ptr, ptr %10, align 8, !tbaa !36
  %88 = getelementptr inbounds nuw i8, ptr %87, i32 1
  store ptr %88, ptr %10, align 8, !tbaa !36
  %89 = load i8, ptr %87, align 1, !tbaa !41
  %90 = zext i8 %89 to i32
  %91 = xor i32 %90, 128
  %92 = trunc i32 %91 to i8
  %93 = load ptr, ptr %13, align 8, !tbaa !36
  %94 = load i32, ptr %15, align 4, !tbaa !40
  %95 = sext i32 %94 to i64
  %96 = getelementptr inbounds i8, ptr %93, i64 %95
  store i8 %92, ptr %96, align 1, !tbaa !41
  %97 = load ptr, ptr %10, align 8, !tbaa !36
  %98 = getelementptr inbounds nuw i8, ptr %97, i32 1
  store ptr %98, ptr %10, align 8, !tbaa !36
  %99 = load i8, ptr %97, align 1, !tbaa !41
  %100 = load ptr, ptr %11, align 8, !tbaa !36
  %101 = load i32, ptr %15, align 4, !tbaa !40
  %102 = mul nsw i32 2, %101
  %103 = sext i32 %102 to i64
  %104 = getelementptr inbounds i8, ptr %100, i64 %103
  store i8 %99, ptr %104, align 1, !tbaa !41
  %105 = load ptr, ptr %10, align 8, !tbaa !36
  %106 = getelementptr inbounds nuw i8, ptr %105, i32 1
  store ptr %106, ptr %10, align 8, !tbaa !36
  %107 = load i8, ptr %105, align 1, !tbaa !41
  %108 = load ptr, ptr %11, align 8, !tbaa !36
  %109 = load i32, ptr %15, align 4, !tbaa !40
  %110 = mul nsw i32 2, %109
  %111 = add nsw i32 %110, 1
  %112 = sext i32 %111 to i64
  %113 = getelementptr inbounds i8, ptr %108, i64 %112
  store i8 %107, ptr %113, align 1, !tbaa !41
  %114 = load ptr, ptr %10, align 8, !tbaa !36
  %115 = getelementptr inbounds nuw i8, ptr %114, i32 1
  store ptr %115, ptr %10, align 8, !tbaa !36
  %116 = load i8, ptr %114, align 1, !tbaa !41
  %117 = load ptr, ptr %11, align 8, !tbaa !36
  %118 = load ptr, ptr %7, align 8, !tbaa !29
  %119 = getelementptr inbounds nuw %struct.AVFrame, ptr %118, i32 0, i32 1
  %120 = getelementptr inbounds [8 x i32], ptr %119, i64 0, i64 0
  %121 = load i32, ptr %120, align 8, !tbaa !40
  %122 = load i32, ptr %15, align 4, !tbaa !40
  %123 = mul nsw i32 2, %122
  %124 = add nsw i32 %121, %123
  %125 = sext i32 %124 to i64
  %126 = getelementptr inbounds i8, ptr %117, i64 %125
  store i8 %116, ptr %126, align 1, !tbaa !41
  %127 = load ptr, ptr %10, align 8, !tbaa !36
  %128 = getelementptr inbounds nuw i8, ptr %127, i32 1
  store ptr %128, ptr %10, align 8, !tbaa !36
  %129 = load i8, ptr %127, align 1, !tbaa !41
  %130 = load ptr, ptr %11, align 8, !tbaa !36
  %131 = load ptr, ptr %7, align 8, !tbaa !29
  %132 = getelementptr inbounds nuw %struct.AVFrame, ptr %131, i32 0, i32 1
  %133 = getelementptr inbounds [8 x i32], ptr %132, i64 0, i64 0
  %134 = load i32, ptr %133, align 8, !tbaa !40
  %135 = load i32, ptr %15, align 4, !tbaa !40
  %136 = mul nsw i32 2, %135
  %137 = add nsw i32 %134, %136
  %138 = add nsw i32 %137, 1
  %139 = sext i32 %138 to i64
  %140 = getelementptr inbounds i8, ptr %130, i64 %139
  store i8 %129, ptr %140, align 1, !tbaa !41
  br label %141

141:                                              ; preds = %76
  %142 = load i32, ptr %15, align 4, !tbaa !40
  %143 = add nsw i32 %142, 1
  store i32 %143, ptr %15, align 4, !tbaa !40
  br label %68, !llvm.loop !42

144:                                              ; preds = %68
  %145 = load ptr, ptr %7, align 8, !tbaa !29
  %146 = getelementptr inbounds nuw %struct.AVFrame, ptr %145, i32 0, i32 1
  %147 = getelementptr inbounds [8 x i32], ptr %146, i64 0, i64 0
  %148 = load i32, ptr %147, align 8, !tbaa !40
  %149 = mul nsw i32 2, %148
  %150 = load ptr, ptr %11, align 8, !tbaa !36
  %151 = sext i32 %149 to i64
  %152 = getelementptr inbounds i8, ptr %150, i64 %151
  store ptr %152, ptr %11, align 8, !tbaa !36
  %153 = load ptr, ptr %7, align 8, !tbaa !29
  %154 = getelementptr inbounds nuw %struct.AVFrame, ptr %153, i32 0, i32 1
  %155 = getelementptr inbounds [8 x i32], ptr %154, i64 0, i64 1
  %156 = load i32, ptr %155, align 4, !tbaa !40
  %157 = load ptr, ptr %12, align 8, !tbaa !36
  %158 = sext i32 %156 to i64
  %159 = getelementptr inbounds i8, ptr %157, i64 %158
  store ptr %159, ptr %12, align 8, !tbaa !36
  %160 = load ptr, ptr %7, align 8, !tbaa !29
  %161 = getelementptr inbounds nuw %struct.AVFrame, ptr %160, i32 0, i32 1
  %162 = getelementptr inbounds [8 x i32], ptr %161, i64 0, i64 2
  %163 = load i32, ptr %162, align 8, !tbaa !40
  %164 = load ptr, ptr %13, align 8, !tbaa !36
  %165 = sext i32 %163 to i64
  %166 = getelementptr inbounds i8, ptr %164, i64 %165
  store ptr %166, ptr %13, align 8, !tbaa !36
  br label %167

167:                                              ; preds = %144
  %168 = load i32, ptr %14, align 4, !tbaa !40
  %169 = add nsw i32 %168, 1
  store i32 %169, ptr %14, align 4, !tbaa !40
  br label %59, !llvm.loop !44

170:                                              ; preds = %59
  %171 = load ptr, ptr %8, align 8, !tbaa !31
  store i32 1, ptr %171, align 4, !tbaa !40
  %172 = load ptr, ptr %9, align 8, !tbaa !32
  %173 = getelementptr inbounds nuw %struct.AVPacket, ptr %172, i32 0, i32 4
  %174 = load i32, ptr %173, align 8, !tbaa !37
  store i32 %174, ptr %5, align 4
  store i32 1, ptr %17, align 4
  br label %175

175:                                              ; preds = %170, %44, %37
  call void @llvm.lifetime.end.p0(i64 4, ptr %16) #4
  call void @llvm.lifetime.end.p0(i64 4, ptr %15) #4
  call void @llvm.lifetime.end.p0(i64 4, ptr %14) #4
  call void @llvm.lifetime.end.p0(i64 8, ptr %13) #4
  call void @llvm.lifetime.end.p0(i64 8, ptr %12) #4
  call void @llvm.lifetime.end.p0(i64 8, ptr %11) #4
  call void @llvm.lifetime.end.p0(i64 8, ptr %10) #4
  %176 = load i32, ptr %5, align 4
  ret i32 %176
}