; Function Attrs: nounwind uwtable
define internal i32 @yuv4_decode_frame(ptr noundef %0, ptr noundef %1, ptr noundef writeonly captures(none) %2, ptr noundef readonly captures(none) %3) #1 {
  %5 = getelementptr inbounds nuw i8, ptr %3, i64 24
  %6 = load ptr, ptr %5, align 8, !tbaa !27
  %7 = getelementptr inbounds nuw i8, ptr %3, i64 32
  %8 = load i32, ptr %7, align 8, !tbaa !29
  %9 = getelementptr inbounds nuw i8, ptr %0, i64 112
  %10 = load i32, ptr %9, align 8, !tbaa !30
  %11 = add nsw i32 %10, 1
  %12 = ashr i32 %11, 1
  %13 = mul nsw i32 %12, 6
  %14 = getelementptr inbounds nuw i8, ptr %0, i64 116
  %15 = load i32, ptr %14, align 4, !tbaa !31
  %16 = add nsw i32 %15, 1
  %17 = ashr i32 %16, 1
  %18 = mul nsw i32 %13, %17
  %19 = icmp slt i32 %8, %18
  br i1 %19, label %20, label %21

20:                                               ; preds = %4
  tail call void (ptr, i32, ptr, ...) @av_log(ptr noundef nonnull %0, i32 noundef 16, ptr noundef nonnull @.str.2) #3
  br label %87

21:                                               ; preds = %4
  %22 = tail call i32 @ff_get_buffer(ptr noundef nonnull %0, ptr noundef %1, i32 noundef 0) #3
  %23 = icmp slt i32 %22, 0
  br i1 %23, label %87, label %24

24:                                               ; preds = %21
  %25 = load i32, ptr %14, align 4, !tbaa !31
  %26 = icmp sgt i32 %25, 0
  br i1 %26, label %.preheader.lr.ph, label %._crit_edge59

.preheader.lr.ph:                                 ; preds = %24
  %27 = getelementptr inbounds nuw i8, ptr %1, i64 16
  %28 = load ptr, ptr %27, align 8, !tbaa !32
  %29 = getelementptr inbounds nuw i8, ptr %1, i64 8
  %30 = load ptr, ptr %29, align 8, !tbaa !32
  %31 = load ptr, ptr %1, align 8, !tbaa !32
  %32 = getelementptr inbounds nuw i8, ptr %1, i64 64
  %33 = getelementptr inbounds nuw i8, ptr %1, i64 68
  %34 = getelementptr inbounds nuw i8, ptr %1, i64 72
  %.pre = load i32, ptr %9, align 8, !tbaa !30
  br label %.preheader

.preheader:                                       ; preds = %.preheader.lr.ph, %._crit_edge
  %35 = phi i32 [ %25, %.preheader.lr.ph ], [ %70, %._crit_edge ]
  %36 = phi i32 [ %.pre, %.preheader.lr.ph ], [ %71, %._crit_edge ]
  %.04658 = phi i32 [ 0, %.preheader.lr.ph ], [ %82, %._crit_edge ]
  %.04757 = phi ptr [ %28, %.preheader.lr.ph ], [ %81, %._crit_edge ]
  %.04856 = phi ptr [ %30, %.preheader.lr.ph ], [ %78, %._crit_edge ]
  %.04955 = phi ptr [ %31, %.preheader.lr.ph ], [ %75, %._crit_edge ]
  %.05054 = phi ptr [ %6, %.preheader.lr.ph ], [ %.1.lcssa, %._crit_edge ]
  %invariant.gep = getelementptr i8, ptr %.04955, i64 1
  %37 = icmp sgt i32 %36, 0
  br i1 %37, label %.lr.ph, label %._crit_edge

.lr.ph:                                           ; preds = %.preheader, %.lr.ph
  %indvars.iv = phi i64 [ %indvars.iv.next, %.lr.ph ], [ 0, %.preheader ]
  %.152 = phi ptr [ %60, %.lr.ph ], [ %.05054, %.preheader ]
  %38 = getelementptr inbounds nuw i8, ptr %.152, i64 1
  %39 = load i8, ptr %.152, align 1, !tbaa !33
  %40 = xor i8 %39, -128
  %41 = getelementptr inbounds nuw i8, ptr %.04856, i64 %indvars.iv
  store i8 %40, ptr %41, align 1, !tbaa !33
  %42 = getelementptr inbounds nuw i8, ptr %.152, i64 2
  %43 = load i8, ptr %38, align 1, !tbaa !33
  %44 = xor i8 %43, -128
  %45 = getelementptr inbounds nuw i8, ptr %.04757, i64 %indvars.iv
  store i8 %44, ptr %45, align 1, !tbaa !33
  %46 = getelementptr inbounds nuw i8, ptr %.152, i64 3
  %47 = load i8, ptr %42, align 1, !tbaa !33
  %48 = shl nuw nsw i64 %indvars.iv, 1
  %49 = getelementptr inbounds nuw i8, ptr %.04955, i64 %48
  store i8 %47, ptr %49, align 1, !tbaa !33
  %50 = getelementptr inbounds nuw i8, ptr %.152, i64 4
  %51 = load i8, ptr %46, align 1, !tbaa !33
  %52 = getelementptr inbounds nuw i8, ptr %49, i64 1
  store i8 %51, ptr %52, align 1, !tbaa !33
  %53 = getelementptr inbounds nuw i8, ptr %.152, i64 5
  %54 = load i8, ptr %50, align 1, !tbaa !33
  %55 = load i32, ptr %32, align 8, !tbaa !34
  %56 = trunc nuw nsw i64 %48 to i32
  %57 = add nsw i32 %55, %56
  %58 = sext i32 %57 to i64
  %59 = getelementptr inbounds i8, ptr %.04955, i64 %58
  store i8 %54, ptr %59, align 1, !tbaa !33
  %60 = getelementptr inbounds nuw i8, ptr %.152, i64 6
  %61 = load i8, ptr %53, align 1, !tbaa !33
  %62 = load i32, ptr %32, align 8, !tbaa !34
  %63 = add nsw i32 %62, %56
  %64 = sext i32 %63 to i64
  %gep = getelementptr i8, ptr %invariant.gep, i64 %64
  store i8 %61, ptr %gep, align 1, !tbaa !33
  %indvars.iv.next = add nuw nsw i64 %indvars.iv, 1
  %65 = load i32, ptr %9, align 8, !tbaa !30
  %66 = add nsw i32 %65, 1
  %67 = ashr i32 %66, 1
  %68 = sext i32 %67 to i64
  %69 = icmp slt i64 %indvars.iv.next, %68
  br i1 %69, label %.lr.ph, label %._crit_edge.loopexit, !llvm.loop !35

._crit_edge.loopexit:                             ; preds = %.lr.ph
  %.pre61 = load i32, ptr %14, align 4, !tbaa !31
  br label %._crit_edge

._crit_edge:                                      ; preds = %._crit_edge.loopexit, %.preheader
  %70 = phi i32 [ %35, %.preheader ], [ %.pre61, %._crit_edge.loopexit ]
  %71 = phi i32 [ %36, %.preheader ], [ %65, %._crit_edge.loopexit ]
  %.1.lcssa = phi ptr [ %.05054, %.preheader ], [ %60, %._crit_edge.loopexit ]
  %72 = load i32, ptr %32, align 8, !tbaa !34
  %73 = shl nsw i32 %72, 1
  %74 = sext i32 %73 to i64
  %75 = getelementptr inbounds i8, ptr %.04955, i64 %74
  %76 = load i32, ptr %33, align 4, !tbaa !34
  %77 = sext i32 %76 to i64
  %78 = getelementptr inbounds i8, ptr %.04856, i64 %77
  %79 = load i32, ptr %34, align 8, !tbaa !34
  %80 = sext i32 %79 to i64
  %81 = getelementptr inbounds i8, ptr %.04757, i64 %80
  %82 = add nuw nsw i32 %.04658, 1
  %83 = add nsw i32 %70, 1
  %84 = ashr i32 %83, 1
  %85 = icmp slt i32 %82, %84
  br i1 %85, label %.preheader, label %._crit_edge59, !llvm.loop !37

._crit_edge59:                                    ; preds = %._crit_edge, %24
  store i32 1, ptr %2, align 4, !tbaa !34
  %86 = load i32, ptr %7, align 8, !tbaa !29
  br label %87

87:                                               ; preds = %21, %._crit_edge59, %20
  %.0 = phi i32 [ -22, %20 ], [ %86, %._crit_edge59 ], [ %22, %21 ]
  ret i32 %.0
}